target datalayout = "e-m:e-p270:32:32-p271:32:32-p272:64:64-i64:64-i128:128-f80:128-n8:16:32:64-S128"
target triple = "x86_64-pc-linux-gnu"

%struct.git_var = type { ptr, ptr, i32 }
%struct.string_list = type { ptr, i64, i64, i8, ptr }
%struct.string_list_item = type { ptr, ptr }

@var_usage = internal constant [26 x i8] c"git var (-l | <variable>)\00", align 16
@.str = private unnamed_addr constant [3 x i8] c"-l\00", align 1
@.str.1 = private unnamed_addr constant [4 x i8] c"%s\0A\00", align 1
@the_repository = external global ptr, align 8
@.str.2 = private unnamed_addr constant [7 x i8] c"%s=%s\0A\00", align 1

; Function Attrs: nounwind uwtable
define internal ptr @get_git_var(ptr noundef %0) #0 {
  %2 = alloca ptr, align 8
  %3 = alloca ptr, align 8
  %4 = alloca ptr, align 8
  %5 = alloca i32, align 4
  store ptr %0, ptr %3, align 8, !tbaa !11
  call void @llvm.lifetime.start.p0(i64 8, ptr %4) #9
  store ptr @git_vars, ptr %4, align 8, !tbaa !15
  br label %6

6:                                                ; preds = %21, %1
  %7 = load ptr, ptr %4, align 8, !tbaa !15
  %8 = getelementptr inbounds nuw %struct.git_var, ptr %7, i32 0, i32 1
  %9 = load ptr, ptr %8, align 8, !tbaa !17
  %10 = icmp ne ptr %9, null
  br i1 %10, label %11, label %24

11:                                               ; preds = %6
  %12 = load ptr, ptr %3, align 8, !tbaa !11
  %13 = load ptr, ptr %4, align 8, !tbaa !15
  %14 = getelementptr inbounds nuw %struct.git_var, ptr %13, i32 0, i32 0
  %15 = load ptr, ptr %14, align 8, !tbaa !29
  %16 = call i32 @strcmp(ptr noundef %12, ptr noundef %15) #11
  %17 = icmp eq i32 %16, 0
  br i1 %17, label %18, label %20

18:                                               ; preds = %11
  %19 = load ptr, ptr %4, align 8, !tbaa !15
  store ptr %19, ptr %2, align 8
  store i32 1, ptr %5, align 4
  br label %25

20:                                               ; preds = %11
  br label %21

21:                                               ; preds = %20
  %22 = load ptr, ptr %4, align 8, !tbaa !15
  %23 = getelementptr inbounds nuw %struct.git_var, ptr %22, i32 1
  store ptr %23, ptr %4, align 8, !tbaa !15
  br label %6, !llvm.loop !36

24:                                               ; preds = %6
  store ptr null, ptr %2, align 8
  store i32 1, ptr %5, align 4
  br label %25

25:                                               ; preds = %24, %18
  call void @llvm.lifetime.end.p0(i64 8, ptr %4) #9
  %26 = load ptr, ptr %2, align 8
  ret ptr %26
}

; Function Attrs: nounwind uwtable
define internal void @list_vars() #0 {
  %1 = alloca ptr, align 8
  %2 = alloca ptr, align 8
  %3 = alloca %struct.string_list, align 8
  %4 = alloca i64, align 8
  call void @llvm.lifetime.start.p0(i64 8, ptr %1) #9
  call void @llvm.lifetime.start.p0(i64 8, ptr %2) #9
  store ptr @git_vars, ptr %1, align 8, !tbaa !15
  br label %5

5:                                                ; preds = %60, %0
  %6 = load ptr, ptr %1, align 8, !tbaa !15
  %7 = getelementptr inbounds nuw %struct.git_var, ptr %6, i32 0, i32 1
  %8 = load ptr, ptr %7, align 8, !tbaa !17
  %9 = icmp ne ptr %8, null
  br i1 %9, label %10, label %63

10:                                               ; preds = %5
  %11 = load ptr, ptr %1, align 8, !tbaa !15
  %12 = getelementptr inbounds nuw %struct.git_var, ptr %11, i32 0, i32 1
  %13 = load ptr, ptr %12, align 8, !tbaa !17
  %14 = call ptr %13(i32 noundef 0)
  store ptr %14, ptr %2, align 8, !tbaa !11
  %15 = icmp ne ptr %14, null
  br i1 %15, label %16, label %59

16:                                               ; preds = %10
  %17 = load ptr, ptr %1, align 8, !tbaa !15
  %18 = getelementptr inbounds nuw %struct.git_var, ptr %17, i32 0, i32 2
  %19 = load i32, ptr %18, align 8, !tbaa !22
  %20 = icmp ne i32 %19, 0
  br i1 %20, label %21, label %51

21:                                               ; preds = %16
  %22 = load ptr, ptr %2, align 8, !tbaa !11
  %23 = load i8, ptr %22, align 1, !tbaa !23
  %24 = sext i8 %23 to i32
  %25 = icmp ne i32 %24, 0
  br i1 %25, label %26, label %51

26:                                               ; preds = %21
  call void @llvm.lifetime.start.p0(i64 40, ptr %3) #9
  call void @llvm.memset.p0.i64(ptr align 8 %3, i8 0, i64 40, i1 false)
  %27 = getelementptr inbounds { ptr, i64, i64, i8, [7 x i8], ptr }, ptr %3, i32 0, i32 3
  store i8 1, ptr %27, align 8
  %28 = load ptr, ptr %2, align 8, !tbaa !11
  %29 = call i32 @string_list_split(ptr noundef %3, ptr noundef %28, i32 noundef 10, i32 noundef -1)
  call void @llvm.lifetime.start.p0(i64 8, ptr %4) #9
  store i64 0, ptr %4, align 8, !tbaa !24
  br label %30

30:                                               ; preds = %47, %26
  %31 = load i64, ptr %4, align 8, !tbaa !24
  %32 = getelementptr inbounds nuw %struct.string_list, ptr %3, i32 0, i32 1
  %33 = load i64, ptr %32, align 8, !tbaa !26
  %34 = icmp ult i64 %31, %33
  br i1 %34, label %36, label %35

35:                                               ; preds = %30
  call void @llvm.lifetime.end.p0(i64 8, ptr %4) #9
  br label %50

36:                                               ; preds = %30
  %37 = load ptr, ptr %1, align 8, !tbaa !15
  %38 = getelementptr inbounds nuw %struct.git_var, ptr %37, i32 0, i32 0
  %39 = load ptr, ptr %38, align 8, !tbaa !29
  %40 = getelementptr inbounds nuw %struct.string_list, ptr %3, i32 0, i32 0
  %41 = load ptr, ptr %40, align 8, !tbaa !30
  %42 = load i64, ptr %4, align 8, !tbaa !24
  %43 = getelementptr inbounds nuw %struct.string_list_item, ptr %41, i64 %42
  %44 = getelementptr inbounds nuw %struct.string_list_item, ptr %43, i32 0, i32 0
  %45 = load ptr, ptr %44, align 8, !tbaa !31
  %46 = call i32 (ptr, ...) @printf(ptr noundef @.str.2, ptr noundef %39, ptr noundef %45)
  br label %47

47:                                               ; preds = %36
  %48 = load i64, ptr %4, align 8, !tbaa !24
  %49 = add i64 %48, 1
  store i64 %49, ptr %4, align 8, !tbaa !24
  br label %30, !llvm.loop !33

50:                                               ; preds = %35
  call void @string_list_clear(ptr noundef %3, i32 noundef 0)
  call void @llvm.lifetime.end.p0(i64 40, ptr %3) #9
  br label %57

51:                                               ; preds = %21, %16
  %52 = load ptr, ptr %1, align 8, !tbaa !15
  %53 = getelementptr inbounds nuw %struct.git_var, ptr %52, i32 0, i32 0
  %54 = load ptr, ptr %53, align 8, !tbaa !29
  %55 = load ptr, ptr %2, align 8, !tbaa !11
  %56 = call i32 (ptr, ...) @printf(ptr noundef @.str.2, ptr noundef %54, ptr noundef %55)
  br label %57

57:                                               ; preds = %51, %50
  %58 = load ptr, ptr %2, align 8, !tbaa !11
  call void @free(ptr noundef %58) #9
  br label %59

59:                                               ; preds = %57, %10
  br label %60

60:                                               ; preds = %59
  %61 = load ptr, ptr %1, align 8, !tbaa !15
  %62 = getelementptr inbounds nuw %struct.git_var, ptr %61, i32 1
  store ptr %62, ptr %1, align 8, !tbaa !15
  br label %5, !llvm.loop !35

63:                                               ; preds = %5
  call void @llvm.lifetime.end.p0(i64 8, ptr %2) #9
  call void @llvm.lifetime.end.p0(i64 8, ptr %1) #9
  ret void
}

; Function Attrs: inlinehint nounwind uwtable
define internal void @git_config(ptr noundef %0, ptr noundef %1) #5 {
  %3 = alloca ptr, align 8
  %4 = alloca ptr, align 8
  store ptr %0, ptr %3, align 8, !tbaa !19
  store ptr %1, ptr %4, align 8, !tbaa !19
  %5 = load ptr, ptr @the_repository, align 8, !tbaa !13
  %6 = load ptr, ptr %3, align 8, !tbaa !19
  %7 = load ptr, ptr %4, align 8, !tbaa !19
  call void @repo_config(ptr noundef %5, ptr noundef %6, ptr noundef %7)
  ret void
}

; Function Attrs: nounwind uwtable
define dso_local i32 @cmd_var(i32 noundef %0, ptr noundef %1, ptr noundef %2, ptr noundef %3) #0 {
  %5 = alloca i32, align 4
  %6 = alloca i32, align 4
  %7 = alloca ptr, align 8
  %8 = alloca ptr, align 8
  %9 = alloca ptr, align 8
  %10 = alloca ptr, align 8
  %11 = alloca ptr, align 8
  %12 = alloca i32, align 4
  store i32 %0, ptr %6, align 4, !tbaa !4
  store ptr %1, ptr %7, align 8, !tbaa !8
  store ptr %2, ptr %8, align 8, !tbaa !11
  store ptr %3, ptr %9, align 8, !tbaa !13
  call void @llvm.lifetime.start.p0(i64 8, ptr %10) #9
  call void @llvm.lifetime.start.p0(i64 8, ptr %11) #9
  %13 = load i32, ptr %6, align 4, !tbaa !4
  %14 = load ptr, ptr %7, align 8, !tbaa !8
  call void @show_usage_if_asked(i32 noundef %13, ptr noundef %14, ptr noundef @var_usage)
  %15 = load i32, ptr %6, align 4, !tbaa !4
  %16 = icmp ne i32 %15, 2
  br i1 %16, label %17, label %18

17:                                               ; preds = %4
  call void @usage(ptr noundef @var_usage) #10
  unreachable

18:                                               ; preds = %4
  %19 = load ptr, ptr %7, align 8, !tbaa !8
  %20 = getelementptr inbounds ptr, ptr %19, i64 1
  %21 = load ptr, ptr %20, align 8, !tbaa !11
  %22 = call i32 @strcmp(ptr noundef %21, ptr noundef @.str) #11
  %23 = icmp eq i32 %22, 0
  br i1 %23, label %24, label %25

24:                                               ; preds = %18
  call void @git_config(ptr noundef @show_config, ptr noundef null)
  call void @list_vars()
  store i32 0, ptr %5, align 4
  store i32 1, ptr %12, align 4
  br label %45

25:                                               ; preds = %18
  call void @git_config(ptr noundef @git_default_config, ptr noundef null)
  %26 = load ptr, ptr %7, align 8, !tbaa !8
  %27 = getelementptr inbounds ptr, ptr %26, i64 1
  %28 = load ptr, ptr %27, align 8, !tbaa !11
  %29 = call ptr @get_git_var(ptr noundef %28)
  store ptr %29, ptr %10, align 8, !tbaa !15
  %30 = load ptr, ptr %10, align 8, !tbaa !15
  %31 = icmp ne ptr %30, null
  br i1 %31, label %33, label %32

32:                                               ; preds = %25
  call void @usage(ptr noundef @var_usage) #10
  unreachable

33:                                               ; preds = %25
  %34 = load ptr, ptr %10, align 8, !tbaa !15
  %35 = getelementptr inbounds nuw %struct.git_var, ptr %34, i32 0, i32 1
  %36 = load ptr, ptr %35, align 8, !tbaa !17
  %37 = call ptr %36(i32 noundef 1)
  store ptr %37, ptr %11, align 8, !tbaa !11
  %38 = load ptr, ptr %11, align 8, !tbaa !11
  %39 = icmp ne ptr %38, null
  br i1 %39, label %41, label %40

40:                                               ; preds = %33
  store i32 1, ptr %5, align 4
  store i32 1, ptr %12, align 4
  br label %45

41:                                               ; preds = %33
  %42 = load ptr, ptr %11, align 8, !tbaa !11
  %43 = call i32 (ptr, ...) @printf(ptr noundef @.str.1, ptr noundef %42)
  %44 = load ptr, ptr %11, align 8, !tbaa !11
  call void @free(ptr noundef %44) #9
  store i32 0, ptr %5, align 4
  store i32 1, ptr %12, align 4
  br label %45

45:                                               ; preds = %41, %40, %24
  call void @llvm.lifetime.end.p0(i64 8, ptr %11) #9
  call void @llvm.lifetime.end.p0(i64 8, ptr %10) #9
  %46 = load i32, ptr %5, align 4
  ret i32 %46
}