; Function Attrs: nounwind uwtable
define dso_local range(i32 0, 2) i32 @cmd_var(i32 noundef %0, ptr noundef %1, ptr noundef readnone captures(none) %2, ptr noundef readnone captures(none) %3) local_unnamed_addr #0 {
  %5 = alloca %struct.string_list, align 8
  tail call void @show_usage_if_asked(i32 noundef %0, ptr noundef %1, ptr noundef nonnull @var_usage) #10
  %.not = icmp eq i32 %0, 2
  br i1 %.not, label %sub_0, label %6

6:                                                ; preds = %4
  tail call void @usage(ptr noundef nonnull @var_usage) #11
  unreachable

sub_0:                                            ; preds = %4
  %7 = getelementptr inbounds nuw i8, ptr %1, i64 8
  %8 = load ptr, ptr %7, align 8, !tbaa !4
  %9 = load i8, ptr %8, align 1
  %.not20 = icmp eq i8 %9, 45
  br i1 %.not20, label %sub_1, label %.tail.thread

sub_1:                                            ; preds = %sub_0
  %10 = getelementptr inbounds nuw i8, ptr %8, i64 1
  %11 = load i8, ptr %10, align 1
  %.not21 = icmp eq i8 %11, 108
  br i1 %.not21, label %.tail, label %.tail.thread

.tail:                                            ; preds = %sub_1
  %12 = getelementptr inbounds nuw i8, ptr %8, i64 2
  %13 = load i8, ptr %12, align 1
  %14 = icmp eq i8 %13, 0
  br i1 %14, label %.lr.ph22.i, label %.tail.thread

.lr.ph22.i:                                       ; preds = %.tail
  %15 = load ptr, ptr @the_repository, align 8, !tbaa !9
  tail call void @repo_config(ptr noundef %15, ptr noundef nonnull @show_config, ptr noundef null) #10
  %16 = getelementptr inbounds nuw i8, ptr %5, i64 24
  %17 = getelementptr inbounds nuw i8, ptr %5, i64 8
  br label %18

18:                                               ; preds = %41, %.lr.ph22.i
  %19 = phi ptr [ @committer, %.lr.ph22.i ], [ %44, %41 ]
  %.01220.i = phi ptr [ @git_vars, %.lr.ph22.i ], [ %42, %41 ]
  %20 = call ptr %19(i32 noundef 0) #10
  %.not15.i = icmp eq ptr %20, null
  br i1 %.not15.i, label %41, label %21

21:                                               ; preds = %18
  %22 = getelementptr inbounds nuw i8, ptr %.01220.i, i64 16
  %23 = load i32, ptr %22, align 8, !tbaa !11
  %.not16.i = icmp eq i32 %23, 0
  br i1 %.not16.i, label %37, label %24

24:                                               ; preds = %21
  %25 = load i8, ptr %20, align 1, !tbaa !14
  %.not17.i = icmp eq i8 %25, 0
  br i1 %.not17.i, label %37, label %26

26:                                               ; preds = %24
  call void @llvm.lifetime.start.p0(i64 40, ptr nonnull %5) #10
  call void @llvm.memset.p0.i64(ptr noundef nonnull align 8 dereferenceable(40) %5, i8 0, i64 40, i1 false)
  store i8 1, ptr %16, align 8
  %27 = call i32 @string_list_split(ptr noundef nonnull %5, ptr noundef nonnull %20, i32 noundef 10, i32 noundef -1) #10
  %28 = load i64, ptr %17, align 8, !tbaa !15
  %.not24.i = icmp eq i64 %28, 0
  br i1 %.not24.i, label %._crit_edge.i, label %.lr.ph.i.preheader

.lr.ph.i.preheader:                               ; preds = %26
  %29 = load ptr, ptr %.01220.i, align 8, !tbaa !19
  br label %.lr.ph.i

._crit_edge.i:                                    ; preds = %.lr.ph.i, %26
  call void @string_list_clear(ptr noundef nonnull %5, i32 noundef 0) #10
  call void @llvm.lifetime.end.p0(i64 40, ptr nonnull %5) #10
  br label %40

.lr.ph.i:                                         ; preds = %.lr.ph.i.preheader, %.lr.ph.i
  %.018.i = phi i64 [ %34, %.lr.ph.i ], [ 0, %.lr.ph.i.preheader ]
  %30 = load ptr, ptr %5, align 8, !tbaa !20
  %31 = getelementptr inbounds nuw %struct.string_list_item, ptr %30, i64 %.018.i
  %32 = load ptr, ptr %31, align 8, !tbaa !21
  %33 = call i32 (ptr, ...) @printf(ptr noundef nonnull dereferenceable(1) @.str.2, ptr noundef %29, ptr noundef %32)
  %34 = add nuw i64 %.018.i, 1
  %35 = load i64, ptr %17, align 8, !tbaa !15
  %36 = icmp ult i64 %34, %35
  br i1 %36, label %.lr.ph.i, label %._crit_edge.i, !llvm.loop !23

37:                                               ; preds = %24, %21
  %38 = load ptr, ptr %.01220.i, align 8, !tbaa !19
  %39 = call i32 (ptr, ...) @printf(ptr noundef nonnull dereferenceable(1) @.str.2, ptr noundef %38, ptr noundef nonnull %20)
  br label %40

40:                                               ; preds = %37, %._crit_edge.i
  call void @free(ptr noundef %20) #10
  br label %41

41:                                               ; preds = %40, %18
  %42 = getelementptr inbounds nuw i8, ptr %.01220.i, i64 24
  %43 = getelementptr inbounds nuw i8, ptr %.01220.i, i64 32
  %44 = load ptr, ptr %43, align 8, !tbaa !25
  %.not.i = icmp eq ptr %44, null
  br i1 %.not.i, label %list_vars.exit, label %18, !llvm.loop !26

.tail.thread:                                     ; preds = %sub_1, %sub_0, %.tail
  %45 = load ptr, ptr @the_repository, align 8, !tbaa !9
  tail call void @repo_config(ptr noundef %45, ptr noundef nonnull @git_default_config, ptr noundef null) #10
  %46 = load ptr, ptr %7, align 8, !tbaa !4
  br label %.lr.ph.i14

.lr.ph.i14:                                       ; preds = %.tail.thread, %50
  %.08.i = phi ptr [ %51, %50 ], [ @git_vars, %.tail.thread ]
  %47 = load ptr, ptr %.08.i, align 8, !tbaa !19
  %48 = tail call i32 @strcmp(ptr noundef nonnull readonly dereferenceable(1) %46, ptr noundef nonnull dereferenceable(1) %47) #12
  %49 = icmp eq i32 %48, 0
  br i1 %49, label %get_git_var.exit, label %50

50:                                               ; preds = %.lr.ph.i14
  %51 = getelementptr inbounds nuw i8, ptr %.08.i, i64 24
  %52 = getelementptr inbounds nuw i8, ptr %.08.i, i64 32
  %53 = load ptr, ptr %52, align 8, !tbaa !25
  %.not.i15 = icmp eq ptr %53, null
  br i1 %.not.i15, label %.loopexit, label %.lr.ph.i14, !llvm.loop !27

.loopexit:                                        ; preds = %50
  tail call void @usage(ptr noundef nonnull @var_usage) #11
  unreachable

get_git_var.exit:                                 ; preds = %.lr.ph.i14
  %54 = getelementptr inbounds nuw i8, ptr %.08.i, i64 8
  %55 = load ptr, ptr %54, align 8, !tbaa !25
  %56 = tail call ptr %55(i32 noundef 1) #10
  %.not13 = icmp eq ptr %56, null
  br i1 %.not13, label %list_vars.exit, label %57

57:                                               ; preds = %get_git_var.exit
  %puts = tail call i32 @puts(ptr nonnull dereferenceable(1) %56)
  tail call void @free(ptr noundef nonnull %56) #10
  br label %list_vars.exit

list_vars.exit:                                   ; preds = %41, %get_git_var.exit, %57
  %.0 = phi i32 [ 0, %57 ], [ 1, %get_git_var.exit ], [ 0, %41 ]
  ret i32 %.0
}